; Function Attrs: inlinehint nounwind uwtable
define internal fastcc ptr @lean_array_set(ptr noundef %0, ptr noundef %1, ptr noundef %2) unnamed_addr #0 {
  %4 = ptrtoint ptr %1 to i64
  %5 = and i64 %4, 1
  %.not = icmp eq i64 %5, 0
  br i1 %.not, label %.thread, label %6

6:                                                ; preds = %3
  %7 = lshr i64 %4, 1
  %8 = getelementptr i8, ptr %0, i64 8
  %.val = load i64, ptr %8, align 8, !tbaa !12
  %9 = icmp ult i64 %7, %.val
  br i1 %9, label %10, label %.thread

10:                                               ; preds = %6
  %.val.i.i = load i32, ptr %0, align 4, !tbaa !4
  %11 = icmp eq i32 %.val.i.i, 1
  br i1 %11, label %lean_ensure_exclusive_array.exit.i, label %12

12:                                               ; preds = %10
  %13 = tail call ptr @lean_copy_expand_array(ptr noundef nonnull %0, i1 noundef zeroext false) #5
  br label %lean_ensure_exclusive_array.exit.i

lean_ensure_exclusive_array.exit.i:               ; preds = %12, %10
  %.0.i.i = phi ptr [ %13, %12 ], [ %0, %10 ]
  %14 = getelementptr inbounds nuw i8, ptr %.0.i.i, i64 24
  %15 = getelementptr inbounds nuw ptr, ptr %14, i64 %7
  %16 = load ptr, ptr %15, align 8, !tbaa !9
  %17 = ptrtoint ptr %16 to i64
  %18 = and i64 %17, 1
  %.not.i = icmp eq i64 %18, 0
  br i1 %.not.i, label %19, label %26

19:                                               ; preds = %lean_ensure_exclusive_array.exit.i
  %20 = load i32, ptr %16, align 4, !tbaa !4
  %21 = icmp sgt i32 %20, 1
  br i1 %21, label %22, label %24, !prof !11

22:                                               ; preds = %19
  %23 = add nsw i32 %20, -1
  store i32 %23, ptr %16, align 4, !tbaa !4
  br label %26

24:                                               ; preds = %19
  %.not.i.i = icmp eq i32 %20, 0
  br i1 %.not.i.i, label %26, label %25

25:                                               ; preds = %24
  tail call void @lean_dec_ref_cold(ptr noundef nonnull %16) #5
  br label %26

26:                                               ; preds = %25, %24, %22, %lean_ensure_exclusive_array.exit.i
  store ptr %2, ptr %15, align 8, !tbaa !9
  br label %28

.thread:                                          ; preds = %6, %3
  %27 = tail call ptr @lean_array_set_panic(ptr noundef %0, ptr noundef %2) #5
  br label %28

28:                                               ; preds = %26, %.thread
  %.1 = phi ptr [ %.0.i.i, %26 ], [ %27, %.thread ]
  ret ptr %.1
}